target datalayout = "e-m:e-p270:32:32-p271:32:32-p272:64:64-i64:64-i128:128-f80:128-n8:16:32:64-S128"
target triple = "x86_64-pc-linux-gnu"

%struct.PartitionBoundInfoData = type { i32, i32, ptr, ptr, ptr, i32, ptr, i32, i32 }

; Function Attrs: nounwind uwtable
define dso_local zeroext i1 @partitions_are_ordered(ptr noundef %0, ptr noundef %1) #0 {
  %3 = alloca i1, align 1
  %4 = alloca ptr, align 8
  %5 = alloca ptr, align 8
  store ptr %0, ptr %4, align 8
  store ptr %1, ptr %5, align 8
  %6 = load ptr, ptr %4, align 8
  %7 = getelementptr inbounds nuw %struct.PartitionBoundInfoData, ptr %6, i32 0, i32 0
  %8 = load i32, ptr %7, align 8
  switch i32 %8, label %30 [
    i32 114, label %9
    i32 108, label %22
    i32 104, label %30
  ]

9:                                                ; preds = %2
  %10 = load ptr, ptr %4, align 8
  %11 = getelementptr inbounds nuw %struct.PartitionBoundInfoData, ptr %10, i32 0, i32 8
  %12 = load i32, ptr %11, align 4
  %13 = icmp ne i32 %12, -1
  br i1 %13, label %14, label %20

14:                                               ; preds = %9
  %15 = load ptr, ptr %4, align 8
  %16 = getelementptr inbounds nuw %struct.PartitionBoundInfoData, ptr %15, i32 0, i32 8
  %17 = load i32, ptr %16, align 4
  %18 = load ptr, ptr %5, align 8
  %19 = call zeroext i1 @bms_is_member(i32 noundef %17, ptr noundef %18)
  br i1 %19, label %21, label %20

20:                                               ; preds = %14, %9
  store i1 true, ptr %3, align 1
  br label %31

21:                                               ; preds = %14
  br label %30

22:                                               ; preds = %2
  %23 = load ptr, ptr %5, align 8
  %24 = load ptr, ptr %4, align 8
  %25 = getelementptr inbounds nuw %struct.PartitionBoundInfoData, ptr %24, i32 0, i32 4
  %26 = load ptr, ptr %25, align 8
  %27 = call zeroext i1 @bms_overlap(ptr noundef %23, ptr noundef %26)
  br i1 %27, label %29, label %28

28:                                               ; preds = %22
  store i1 true, ptr %3, align 1
  br label %31

29:                                               ; preds = %22
  br label %30

30:                                               ; preds = %2, %2, %29, %21
  store i1 false, ptr %3, align 1
  br label %31

31:                                               ; preds = %30, %28, %20
  %32 = load i1, ptr %3, align 1
  ret i1 %32
}