; Function Attrs: nounwind uwtable
define dso_local noundef zeroext i1 @partitions_are_ordered(ptr noundef readonly captures(none) %0, ptr noundef %1) local_unnamed_addr #0 {
  %3 = load i32, ptr %0, align 8
  switch i32 %3, label %13 [
    i32 114, label %4
    i32 108, label %9
  ]

4:                                                ; preds = %2
  %5 = getelementptr inbounds nuw i8, ptr %0, i64 52
  %6 = load i32, ptr %5, align 4
  %.not = icmp eq i32 %6, -1
  br i1 %.not, label %14, label %7

7:                                                ; preds = %4
  %8 = tail call zeroext i1 @bms_is_member(i32 noundef %6, ptr noundef %1) #12
  br i1 %8, label %13, label %14

9:                                                ; preds = %2
  %10 = getelementptr inbounds nuw i8, ptr %0, i64 24
  %11 = load ptr, ptr %10, align 8
  %12 = tail call zeroext i1 @bms_overlap(ptr noundef %1, ptr noundef %11) #12
  br i1 %12, label %13, label %14

13:                                               ; preds = %9, %7, %2
  br label %14

14:                                               ; preds = %9, %4, %7, %13
  %.0 = phi i1 [ false, %13 ], [ true, %7 ], [ true, %4 ], [ true, %9 ]
  ret i1 %.0
}